target datalayout = "e-m:e-p270:32:32-p271:32:32-p272:64:64-i64:64-i128:128-f80:128-n8:16:32:64-S128"
target triple = "x86_64-pc-linux-gnu"

; Function Attrs: null_pointer_is_valid sspstrong uwtable
define internal i32 @get_zvt_message_len(ptr noundef %0, ptr noundef %1, i32 noundef %2, ptr noundef %3) #0 {
  %5 = alloca ptr, align 8
  %6 = alloca ptr, align 8
  %7 = alloca i32, align 4
  %8 = alloca ptr, align 8
  %9 = alloca i32, align 4
  store ptr %0, ptr %5, align 8
  store ptr %1, ptr %6, align 8
  store i32 %2, ptr %7, align 4
  store ptr %3, ptr %8, align 8
  call void @llvm.lifetime.start.p0(i64 4, ptr %9) #7
  %10 = load ptr, ptr %6, align 8
  %11 = load i32, ptr %7, align 4
  %12 = add i32 %11, 2
  %13 = call zeroext i8 @tvb_get_uint8(ptr noundef %10, i32 noundef %12)
  %14 = zext i8 %13 to i32
  store i32 %14, ptr %9, align 4
  %15 = load i32, ptr %9, align 4
  %16 = icmp eq i32 %15, 255
  br i1 %16, label %17, label %31

17:                                               ; preds = %4
  %18 = load ptr, ptr %6, align 8
  %19 = load i32, ptr %7, align 4
  %20 = call i32 @tvb_captured_length_remaining(ptr noundef %18, i32 noundef %19)
  %21 = icmp sge i32 %20, 5
  br i1 %21, label %22, label %29

22:                                               ; preds = %17
  %23 = load ptr, ptr %6, align 8
  %24 = load i32, ptr %7, align 4
  %25 = add i32 %24, 3
  %26 = call zeroext i16 @tvb_get_letohs(ptr noundef %23, i32 noundef %25)
  %27 = zext i16 %26 to i32
  %28 = add i32 %27, 5
  store i32 %28, ptr %9, align 4
  br label %30

29:                                               ; preds = %17
  store i32 0, ptr %9, align 4
  br label %30

30:                                               ; preds = %29, %22
  br label %34

31:                                               ; preds = %4
  %32 = load i32, ptr %9, align 4
  %33 = add i32 %32, 3
  store i32 %33, ptr %9, align 4
  br label %34

34:                                               ; preds = %31, %30
  %35 = load i32, ptr %9, align 4
  call void @llvm.lifetime.end.p0(i64 4, ptr %9) #7
  ret i32 %35
}