; Function Attrs: null_pointer_is_valid sspstrong uwtable
define internal range(i32 0, 65541) i32 @get_zvt_message_len(ptr readnone captures(none) %0, ptr noundef %1, i32 noundef %2, ptr readnone captures(none) %3) #0 {
  %5 = add i32 %2, 2
  %6 = tail call zeroext i8 @tvb_get_uint8(ptr noundef %1, i32 noundef %5)
  %7 = icmp eq i8 %6, -1
  br i1 %7, label %8, label %16

8:                                                ; preds = %4
  %9 = tail call i32 @tvb_captured_length_remaining(ptr noundef %1, i32 noundef %2)
  %10 = icmp sgt i32 %9, 4
  br i1 %10, label %11, label %19

11:                                               ; preds = %8
  %12 = add i32 %2, 3
  %13 = tail call zeroext i16 @tvb_get_letohs(ptr noundef %1, i32 noundef %12)
  %14 = zext i16 %13 to i32
  %15 = add nuw nsw i32 %14, 5
  br label %19

16:                                               ; preds = %4
  %17 = zext i8 %6 to i32
  %18 = add nuw nsw i32 %17, 3
  br label %19

19:                                               ; preds = %8, %11, %16
  %.0 = phi i32 [ %15, %11 ], [ %18, %16 ], [ 0, %8 ]
  ret i32 %.0
}